target datalayout = "e-m:e-p270:32:32-p271:32:32-p272:64:64-i64:64-i128:128-f80:128-n8:16:32:64-S128"
target triple = "x86_64-pc-linux-gnu"

%struct.LogicalRepCtxStruct = type { i32, i32, i64, [0 x %struct.LogicalRepWorker] }
%struct.LogicalRepWorker = type { i32, i64, i8, i16, ptr, i32, i32, i32, i32, i8, i64, i8, ptr, i32, i8, i64, i64, i64, i64, i64 }
%union.LWLockPadded = type { %struct.LWLock, [112 x i8] }
%struct.LWLock = type { i16, %struct.pg_atomic_uint32, %struct.proclist_head }
%struct.pg_atomic_uint32 = type { i32 }
%struct.proclist_head = type { i32, i32 }

@LogicalRepCtx = internal global ptr null, align 8
@MainLWLockArray = external global ptr, align 8
@last_start_times = internal global ptr null, align 8
@TopMemoryContext = external global ptr, align 8
@last_start_times_dsa = internal global ptr null, align 8
@dsh_params = internal constant { i64, i64, ptr, ptr, ptr, i32, [4 x i8] } { i64 4, i64 16, ptr @dshash_memcmp, ptr @dshash_memhash, ptr @dshash_memcpy, i32 81, [4 x i8] zeroinitializer }, align 8
@CurrentMemoryContext = external global ptr, align 8

; Function Attrs: inlinehint nounwind uwtable
define internal ptr @MemoryContextSwitchTo(ptr noundef %0) #6 {
  %2 = alloca ptr, align 8
  %3 = alloca ptr, align 8
  store ptr %0, ptr %2, align 8
  call void @llvm.lifetime.start.p0(i64 8, ptr %3) #9
  %4 = load ptr, ptr @CurrentMemoryContext, align 8
  store ptr %4, ptr %3, align 8
  %5 = load ptr, ptr %2, align 8
  store ptr %5, ptr @CurrentMemoryContext, align 8
  %6 = load ptr, ptr %3, align 8
  call void @llvm.lifetime.end.p0(i64 8, ptr %3) #9
  ret ptr %6
}

; Function Attrs: nounwind uwtable
define internal void @logicalrep_launcher_attach_dshmem() #0 {
  %1 = alloca ptr, align 8
  %2 = alloca i32, align 4
  call void @llvm.lifetime.start.p0(i64 8, ptr %1) #9
  %3 = load ptr, ptr @LogicalRepCtx, align 8
  %4 = getelementptr inbounds nuw %struct.LogicalRepCtxStruct, ptr %3, i32 0, i32 2
  %5 = load i64, ptr %4, align 8
  %6 = icmp ne i64 %5, 0
  br i1 %6, label %7, label %11

7:                                                ; preds = %0
  %8 = load ptr, ptr @last_start_times, align 8
  %9 = icmp ne ptr %8, null
  br i1 %9, label %10, label %11

10:                                               ; preds = %7
  store i32 1, ptr %2, align 4
  br label %55

11:                                               ; preds = %7, %0
  %12 = load ptr, ptr @MainLWLockArray, align 8
  %13 = getelementptr inbounds %union.LWLockPadded, ptr %12, i64 43
  %14 = call zeroext i1 @LWLockAcquire(ptr noundef %13, i32 noundef 0)
  %15 = load ptr, ptr @TopMemoryContext, align 8
  %16 = call ptr @MemoryContextSwitchTo(ptr noundef %15)
  store ptr %16, ptr %1, align 8
  %17 = load ptr, ptr @LogicalRepCtx, align 8
  %18 = getelementptr inbounds nuw %struct.LogicalRepCtxStruct, ptr %17, i32 0, i32 2
  %19 = load i64, ptr %18, align 8
  %20 = icmp eq i64 %19, 0
  br i1 %20, label %21, label %35

21:                                               ; preds = %11
  %22 = call ptr @dsa_create_ext(i32 noundef 80, i64 noundef 1048576, i64 noundef 1099511627776)
  store ptr %22, ptr @last_start_times_dsa, align 8
  %23 = load ptr, ptr @last_start_times_dsa, align 8
  call void @dsa_pin(ptr noundef %23)
  %24 = load ptr, ptr @last_start_times_dsa, align 8
  call void @dsa_pin_mapping(ptr noundef %24)
  %25 = load ptr, ptr @last_start_times_dsa, align 8
  %26 = call ptr @dshash_create(ptr noundef %25, ptr noundef @dsh_params, ptr noundef null)
  store ptr %26, ptr @last_start_times, align 8
  %27 = load ptr, ptr @last_start_times_dsa, align 8
  %28 = call i32 @dsa_get_handle(ptr noundef %27)
  %29 = load ptr, ptr @LogicalRepCtx, align 8
  %30 = getelementptr inbounds nuw %struct.LogicalRepCtxStruct, ptr %29, i32 0, i32 1
  store i32 %28, ptr %30, align 4
  %31 = load ptr, ptr @last_start_times, align 8
  %32 = call i64 @dshash_get_hash_table_handle(ptr noundef %31)
  %33 = load ptr, ptr @LogicalRepCtx, align 8
  %34 = getelementptr inbounds nuw %struct.LogicalRepCtxStruct, ptr %33, i32 0, i32 2
  store i64 %32, ptr %34, align 8
  br label %50

35:                                               ; preds = %11
  %36 = load ptr, ptr @last_start_times, align 8
  %37 = icmp ne ptr %36, null
  br i1 %37, label %49, label %38

38:                                               ; preds = %35
  %39 = load ptr, ptr @LogicalRepCtx, align 8
  %40 = getelementptr inbounds nuw %struct.LogicalRepCtxStruct, ptr %39, i32 0, i32 1
  %41 = load i32, ptr %40, align 4
  %42 = call ptr @dsa_attach(i32 noundef %41)
  store ptr %42, ptr @last_start_times_dsa, align 8
  %43 = load ptr, ptr @last_start_times_dsa, align 8
  call void @dsa_pin_mapping(ptr noundef %43)
  %44 = load ptr, ptr @last_start_times_dsa, align 8
  %45 = load ptr, ptr @LogicalRepCtx, align 8
  %46 = getelementptr inbounds nuw %struct.LogicalRepCtxStruct, ptr %45, i32 0, i32 2
  %47 = load i64, ptr %46, align 8
  %48 = call ptr @dshash_attach(ptr noundef %44, ptr noundef @dsh_params, i64 noundef %47, ptr noundef null)
  store ptr %48, ptr @last_start_times, align 8
  br label %49

49:                                               ; preds = %38, %35
  br label %50

50:                                               ; preds = %49, %21
  %51 = load ptr, ptr %1, align 8
  %52 = call ptr @MemoryContextSwitchTo(ptr noundef %51)
  %53 = load ptr, ptr @MainLWLockArray, align 8
  %54 = getelementptr inbounds %union.LWLockPadded, ptr %53, i64 43
  call void @LWLockRelease(ptr noundef %54)
  store i32 0, ptr %2, align 4
  br label %55

55:                                               ; preds = %50, %10
  call void @llvm.lifetime.end.p0(i64 8, ptr %1) #9
  %56 = load i32, ptr %2, align 4
  switch i32 %56, label %58 [
    i32 0, label %57
    i32 1, label %57
  ]

57:                                               ; preds = %55, %55
  ret void

58:                                               ; preds = %55
  unreachable
}