; Function Attrs: nounwind uwtable
define internal fastcc void @logicalrep_launcher_attach_dshmem() unnamed_addr #2 {
  %1 = load ptr, ptr @LogicalRepCtx, align 8
  %2 = getelementptr inbounds nuw i8, ptr %1, i64 8
  %3 = load i64, ptr %2, align 8
  %4 = icmp ne i64 %3, 0
  %5 = load ptr, ptr @last_start_times, align 8
  %6 = icmp ne ptr %5, null
  %or.cond = select i1 %4, i1 %6, i1 false
  br i1 %or.cond, label %44, label %7

7:                                                ; preds = %0
  %8 = load ptr, ptr @MainLWLockArray, align 8
  %9 = getelementptr inbounds nuw i8, ptr %8, i64 5504
  %10 = tail call zeroext i1 @LWLockAcquire(ptr noundef nonnull %9, i32 noundef 0) #13
  %11 = load ptr, ptr @TopMemoryContext, align 8
  %12 = load ptr, ptr @CurrentMemoryContext, align 8
  store ptr %11, ptr @CurrentMemoryContext, align 8
  %13 = load ptr, ptr @LogicalRepCtx, align 8
  %14 = getelementptr inbounds nuw i8, ptr %13, i64 8
  %15 = load i64, ptr %14, align 8
  %16 = icmp eq i64 %15, 0
  br i1 %16, label %17, label %30

17:                                               ; preds = %7
  %18 = tail call ptr @dsa_create_ext(i32 noundef 80, i64 noundef 1048576, i64 noundef 1099511627776) #13
  store ptr %18, ptr @last_start_times_dsa, align 8
  tail call void @dsa_pin(ptr noundef %18) #13
  %19 = load ptr, ptr @last_start_times_dsa, align 8
  tail call void @dsa_pin_mapping(ptr noundef %19) #13
  %20 = load ptr, ptr @last_start_times_dsa, align 8
  %21 = tail call ptr @dshash_create(ptr noundef %20, ptr noundef nonnull @dsh_params, ptr noundef null) #13
  store ptr %21, ptr @last_start_times, align 8
  %22 = load ptr, ptr @last_start_times_dsa, align 8
  %23 = tail call i32 @dsa_get_handle(ptr noundef %22) #13
  %24 = load ptr, ptr @LogicalRepCtx, align 8
  %25 = getelementptr inbounds nuw i8, ptr %24, i64 4
  store i32 %23, ptr %25, align 4
  %26 = load ptr, ptr @last_start_times, align 8
  %27 = tail call i64 @dshash_get_hash_table_handle(ptr noundef %26) #13
  %28 = load ptr, ptr @LogicalRepCtx, align 8
  %29 = getelementptr inbounds nuw i8, ptr %28, i64 8
  store i64 %27, ptr %29, align 8
  br label %41

30:                                               ; preds = %7
  %31 = load ptr, ptr @last_start_times, align 8
  %.not = icmp eq ptr %31, null
  br i1 %.not, label %32, label %41

32:                                               ; preds = %30
  %33 = getelementptr inbounds nuw i8, ptr %13, i64 4
  %34 = load i32, ptr %33, align 4
  %35 = tail call ptr @dsa_attach(i32 noundef %34) #13
  store ptr %35, ptr @last_start_times_dsa, align 8
  tail call void @dsa_pin_mapping(ptr noundef %35) #13
  %36 = load ptr, ptr @last_start_times_dsa, align 8
  %37 = load ptr, ptr @LogicalRepCtx, align 8
  %38 = getelementptr inbounds nuw i8, ptr %37, i64 8
  %39 = load i64, ptr %38, align 8
  %40 = tail call ptr @dshash_attach(ptr noundef %36, ptr noundef nonnull @dsh_params, i64 noundef %39, ptr noundef null) #13
  store ptr %40, ptr @last_start_times, align 8
  br label %41

41:                                               ; preds = %30, %32, %17
  store ptr %12, ptr @CurrentMemoryContext, align 8
  %42 = load ptr, ptr @MainLWLockArray, align 8
  %43 = getelementptr inbounds nuw i8, ptr %42, i64 5504
  tail call void @LWLockRelease(ptr noundef nonnull %43) #13
  br label %44

44:                                               ; preds = %0, %41
  ret void
}